target datalayout = "e-m:e-p270:32:32-p271:32:32-p272:64:64-i64:64-i128:128-f80:128-n8:16:32:64-S128"
target triple = "x86_64-unknown-linux-gnu"

%struct.UString = type { ptr, i32, i32 }
%struct.ParseState = type { [4 x %struct.Lookahead], i32, ptr, ptr, ptr, i32, ptr, i32, ptr, i8, i8, i8 }
%struct.Lookahead = type { i32, %struct.UString, %struct.UString, i32 }

@tokenNames = dso_local global [7 x ptr] [ptr @.str, ptr @.str.1, ptr @.str.2, ptr @.str.3, ptr @.str.4, ptr @.str.5, ptr @.str.6], align 16
@.str.10 = private unnamed_addr constant [21 x i8] c"expecting %s, got %s\00", align 1

; Function Attrs: mustprogress nounwind uwtable
define internal noundef signext i8 @_ZL9U_FAILURE10UErrorCode(i32 noundef %code) #0 {
entry:
  %code.addr = alloca i32, align 4
  store i32 %code, ptr %code.addr, align 4
  %0 = load i32, ptr %code.addr, align 4
  %cmp = icmp sgt i32 %0, 0
  %conv = zext i1 %cmp to i8
  ret i8 %conv
}

; Function Attrs: mustprogress uwtable
define internal noundef i32 @_ZL8getTokenP10ParseStatePP7UStringS2_PjP10UErrorCode(ptr noundef %state, ptr noundef %tokenValue, ptr noundef %comment, ptr noundef %linenumber, ptr noundef %status) #1 {
entry:
  %state.addr = alloca ptr, align 8
  %tokenValue.addr = alloca ptr, align 8
  %comment.addr = alloca ptr, align 8
  %linenumber.addr = alloca ptr, align 8
  %status.addr = alloca ptr, align 8
  %result = alloca i32, align 4
  %i = alloca i32, align 4
  store ptr %state, ptr %state.addr, align 8
  store ptr %tokenValue, ptr %tokenValue.addr, align 8
  store ptr %comment, ptr %comment.addr, align 8
  store ptr %linenumber, ptr %linenumber.addr, align 8
  store ptr %status, ptr %status.addr, align 8
  %0 = load ptr, ptr %state.addr, align 8
  %lookahead = getelementptr inbounds %struct.ParseState, ptr %0, i32 0, i32 0
  %1 = load ptr, ptr %state.addr, align 8
  %lookaheadPosition = getelementptr inbounds %struct.ParseState, ptr %1, i32 0, i32 1
  %2 = load i32, ptr %lookaheadPosition, align 8
  %idxprom = zext i32 %2 to i64
  %arrayidx = getelementptr inbounds [4 x %struct.Lookahead], ptr %lookahead, i64 0, i64 %idxprom
  %type = getelementptr inbounds %struct.Lookahead, ptr %arrayidx, i32 0, i32 0
  %3 = load i32, ptr %type, align 8
  store i32 %3, ptr %result, align 4
  %4 = load ptr, ptr %tokenValue.addr, align 8
  %cmp = icmp ne ptr %4, null
  br i1 %cmp, label %if.then, label %if.end

if.then:                                          ; preds = %entry
  %5 = load ptr, ptr %state.addr, align 8
  %lookahead1 = getelementptr inbounds %struct.ParseState, ptr %5, i32 0, i32 0
  %6 = load ptr, ptr %state.addr, align 8
  %lookaheadPosition2 = getelementptr inbounds %struct.ParseState, ptr %6, i32 0, i32 1
  %7 = load i32, ptr %lookaheadPosition2, align 8
  %idxprom3 = zext i32 %7 to i64
  %arrayidx4 = getelementptr inbounds [4 x %struct.Lookahead], ptr %lookahead1, i64 0, i64 %idxprom3
  %value = getelementptr inbounds %struct.Lookahead, ptr %arrayidx4, i32 0, i32 1
  %8 = load ptr, ptr %tokenValue.addr, align 8
  store ptr %value, ptr %8, align 8
  br label %if.end

if.end:                                           ; preds = %if.then, %entry
  %9 = load ptr, ptr %linenumber.addr, align 8
  %cmp5 = icmp ne ptr %9, null
  br i1 %cmp5, label %if.then6, label %if.end11

if.then6:                                         ; preds = %if.end
  %10 = load ptr, ptr %state.addr, align 8
  %lookahead7 = getelementptr inbounds %struct.ParseState, ptr %10, i32 0, i32 0
  %11 = load ptr, ptr %state.addr, align 8
  %lookaheadPosition8 = getelementptr inbounds %struct.ParseState, ptr %11, i32 0, i32 1
  %12 = load i32, ptr %lookaheadPosition8, align 8
  %idxprom9 = zext i32 %12 to i64
  %arrayidx10 = getelementptr inbounds [4 x %struct.Lookahead], ptr %lookahead7, i64 0, i64 %idxprom9
  %line = getelementptr inbounds %struct.Lookahead, ptr %arrayidx10, i32 0, i32 3
  %13 = load i32, ptr %line, align 8
  %14 = load ptr, ptr %linenumber.addr, align 8
  store i32 %13, ptr %14, align 4
  br label %if.end11

if.end11:                                         ; preds = %if.then6, %if.end
  %15 = load ptr, ptr %comment.addr, align 8
  %cmp12 = icmp ne ptr %15, null
  br i1 %cmp12, label %if.then13, label %if.end19

if.then13:                                        ; preds = %if.end11
  %16 = load ptr, ptr %comment.addr, align 8
  %17 = load ptr, ptr %state.addr, align 8
  %lookahead14 = getelementptr inbounds %struct.ParseState, ptr %17, i32 0, i32 0
  %18 = load ptr, ptr %state.addr, align 8
  %lookaheadPosition15 = getelementptr inbounds %struct.ParseState, ptr %18, i32 0, i32 1
  %19 = load i32, ptr %lookaheadPosition15, align 8
  %idxprom16 = zext i32 %19 to i64
  %arrayidx17 = getelementptr inbounds [4 x %struct.Lookahead], ptr %lookahead14, i64 0, i64 %idxprom16
  %comment18 = getelementptr inbounds %struct.Lookahead, ptr %arrayidx17, i32 0, i32 2
  %20 = load ptr, ptr %status.addr, align 8
  call void @ustr_cpy(ptr noundef %16, ptr noundef %comment18, ptr noundef %20)
  br label %if.end19

if.end19:                                         ; preds = %if.then13, %if.end11
  %21 = load ptr, ptr %state.addr, align 8
  %lookaheadPosition20 = getelementptr inbounds %struct.ParseState, ptr %21, i32 0, i32 1
  %22 = load i32, ptr %lookaheadPosition20, align 8
  %add = add i32 %22, 3
  %rem = urem i32 %add, 4
  store i32 %rem, ptr %i, align 4
  %23 = load ptr, ptr %state.addr, align 8
  %lookaheadPosition21 = getelementptr inbounds %struct.ParseState, ptr %23, i32 0, i32 1
  %24 = load i32, ptr %lookaheadPosition21, align 8
  %add22 = add i32 %24, 1
  %rem23 = urem i32 %add22, 4
  %25 = load ptr, ptr %state.addr, align 8
  %lookaheadPosition24 = getelementptr inbounds %struct.ParseState, ptr %25, i32 0, i32 1
  store i32 %rem23, ptr %lookaheadPosition24, align 8
  %26 = load ptr, ptr %state.addr, align 8
  %lookahead25 = getelementptr inbounds %struct.ParseState, ptr %26, i32 0, i32 0
  %27 = load i32, ptr %i, align 4
  %idxprom26 = zext i32 %27 to i64
  %arrayidx27 = getelementptr inbounds [4 x %struct.Lookahead], ptr %lookahead25, i64 0, i64 %idxprom26
  %comment28 = getelementptr inbounds %struct.Lookahead, ptr %arrayidx27, i32 0, i32 2
  %28 = load ptr, ptr %status.addr, align 8
  call void @ustr_setlen(ptr noundef %comment28, i32 noundef 0, ptr noundef %28)
  %29 = load ptr, ptr %state.addr, align 8
  %lookahead29 = getelementptr inbounds %struct.ParseState, ptr %29, i32 0, i32 0
  %30 = load i32, ptr %i, align 4
  %idxprom30 = zext i32 %30 to i64
  %arrayidx31 = getelementptr inbounds [4 x %struct.Lookahead], ptr %lookahead29, i64 0, i64 %idxprom30
  %value32 = getelementptr inbounds %struct.Lookahead, ptr %arrayidx31, i32 0, i32 1
  %31 = load ptr, ptr %status.addr, align 8
  call void @ustr_setlen(ptr noundef %value32, i32 noundef 0, ptr noundef %31)
  %32 = load ptr, ptr %state.addr, align 8
  %buffer = getelementptr inbounds %struct.ParseState, ptr %32, i32 0, i32 2
  %33 = load ptr, ptr %buffer, align 8
  %34 = load ptr, ptr %state.addr, align 8
  %lookahead33 = getelementptr inbounds %struct.ParseState, ptr %34, i32 0, i32 0
  %35 = load i32, ptr %i, align 4
  %idxprom34 = zext i32 %35 to i64
  %arrayidx35 = getelementptr inbounds [4 x %struct.Lookahead], ptr %lookahead33, i64 0, i64 %idxprom34
  %value36 = getelementptr inbounds %struct.Lookahead, ptr %arrayidx35, i32 0, i32 1
  %36 = load ptr, ptr %state.addr, align 8
  %lookahead37 = getelementptr inbounds %struct.ParseState, ptr %36, i32 0, i32 0
  %37 = load i32, ptr %i, align 4
  %idxprom38 = zext i32 %37 to i64
  %arrayidx39 = getelementptr inbounds [4 x %struct.Lookahead], ptr %lookahead37, i64 0, i64 %idxprom38
  %line40 = getelementptr inbounds %struct.Lookahead, ptr %arrayidx39, i32 0, i32 3
  %38 = load ptr, ptr %state.addr, align 8
  %lookahead41 = getelementptr inbounds %struct.ParseState, ptr %38, i32 0, i32 0
  %39 = load i32, ptr %i, align 4
  %idxprom42 = zext i32 %39 to i64
  %arrayidx43 = getelementptr inbounds [4 x %struct.Lookahead], ptr %lookahead41, i64 0, i64 %idxprom42
  %comment44 = getelementptr inbounds %struct.Lookahead, ptr %arrayidx43, i32 0, i32 2
  %40 = load ptr, ptr %status.addr, align 8
  %call = call i32 @getNextToken(ptr noundef %33, ptr noundef %value36, ptr noundef %line40, ptr noundef %comment44, ptr noundef %40)
  %41 = load ptr, ptr %state.addr, align 8
  %lookahead45 = getelementptr inbounds %struct.ParseState, ptr %41, i32 0, i32 0
  %42 = load i32, ptr %i, align 4
  %idxprom46 = zext i32 %42 to i64
  %arrayidx47 = getelementptr inbounds [4 x %struct.Lookahead], ptr %lookahead45, i64 0, i64 %idxprom46
  %type48 = getelementptr inbounds %struct.Lookahead, ptr %arrayidx47, i32 0, i32 0
  store i32 %call, ptr %type48, align 8
  %43 = load i32, ptr %result, align 4
  ret i32 %43
}

; Function Attrs: mustprogress uwtable
define internal void @_ZL6expectP10ParseState10ETokenTypePP7UStringS3_PjP10UErrorCode(ptr noundef %state, i32 noundef %expectedToken, ptr noundef %tokenValue, ptr noundef %comment, ptr noundef %linenumber, ptr noundef %status) #1 {
entry:
  %state.addr = alloca ptr, align 8
  %expectedToken.addr = alloca i32, align 4
  %tokenValue.addr = alloca ptr, align 8
  %comment.addr = alloca ptr, align 8
  %linenumber.addr = alloca ptr, align 8
  %status.addr = alloca ptr, align 8
  %line = alloca i32, align 4
  %token = alloca i32, align 4
  store ptr %state, ptr %state.addr, align 8
  store i32 %expectedToken, ptr %expectedToken.addr, align 4
  store ptr %tokenValue, ptr %tokenValue.addr, align 8
  store ptr %comment, ptr %comment.addr, align 8
  store ptr %linenumber, ptr %linenumber.addr, align 8
  store ptr %status, ptr %status.addr, align 8
  %0 = load ptr, ptr %state.addr, align 8
  %1 = load ptr, ptr %tokenValue.addr, align 8
  %2 = load ptr, ptr %comment.addr, align 8
  %3 = load ptr, ptr %status.addr, align 8
  %call = call noundef i32 @_ZL8getTokenP10ParseStatePP7UStringS2_PjP10UErrorCode(ptr noundef %0, ptr noundef %1, ptr noundef %2, ptr noundef %line, ptr noundef %3)
  store i32 %call, ptr %token, align 4
  %4 = load ptr, ptr %linenumber.addr, align 8
  %cmp = icmp ne ptr %4, null
  br i1 %cmp, label %if.then, label %if.end

if.then:                                          ; preds = %entry
  %5 = load i32, ptr %line, align 4
  %6 = load ptr, ptr %linenumber.addr, align 8
  store i32 %5, ptr %6, align 4
  br label %if.end

if.end:                                           ; preds = %if.then, %entry
  %7 = load ptr, ptr %status.addr, align 8
  %8 = load i32, ptr %7, align 4
  %call1 = call noundef signext i8 @_ZL9U_FAILURE10UErrorCode(i32 noundef %8)
  %tobool = icmp ne i8 %call1, 0
  br i1 %tobool, label %if.then2, label %if.end3

if.then2:                                         ; preds = %if.end
  br label %if.end8

if.end3:                                          ; preds = %if.end
  %9 = load i32, ptr %token, align 4
  %10 = load i32, ptr %expectedToken.addr, align 4
  %cmp4 = icmp ne i32 %9, %10
  br i1 %cmp4, label %if.then5, label %if.else

if.then5:                                         ; preds = %if.end3
  %11 = load ptr, ptr %status.addr, align 8
  store i32 3, ptr %11, align 4
  %12 = load i32, ptr %line, align 4
  %13 = load i32, ptr %expectedToken.addr, align 4
  %idxprom = zext i32 %13 to i64
  %arrayidx = getelementptr inbounds [7 x ptr], ptr @tokenNames, i64 0, i64 %idxprom
  %14 = load ptr, ptr %arrayidx, align 8
  %15 = load i32, ptr %token, align 4
  %idxprom6 = zext i32 %15 to i64
  %arrayidx7 = getelementptr inbounds [7 x ptr], ptr @tokenNames, i64 0, i64 %idxprom6
  %16 = load ptr, ptr %arrayidx7, align 8
  call void (i32, ptr, ...) @error(i32 noundef %12, ptr noundef @.str.10, ptr noundef %14, ptr noundef %16)
  br label %if.end8

if.else:                                          ; preds = %if.end3
  %17 = load ptr, ptr %status.addr, align 8
  store i32 0, ptr %17, align 4
  br label %if.end8

if.end8:                                          ; preds = %if.else, %if.then5, %if.then2
  ret void
}