; Function Attrs: mustprogress uwtable
define internal fastcc void @_ZL6expectP10ParseState10ETokenTypePP7UStringS3_PjP10UErrorCode(ptr noundef %state, i32 noundef %expectedToken, ptr noundef writeonly %tokenValue, ptr noundef %comment, ptr noundef writeonly %linenumber, ptr noundef %status) unnamed_addr #1 {
entry:
  %lookaheadPosition.i = getelementptr inbounds i8, ptr %state, i64 192
  %0 = load i32, ptr %lookaheadPosition.i, align 8
  %idxprom.i = zext i32 %0 to i64
  %arrayidx.i = getelementptr inbounds [4 x %struct.Lookahead], ptr %state, i64 0, i64 %idxprom.i
  %1 = load i32, ptr %arrayidx.i, align 8
  %cmp.not.i = icmp eq ptr %tokenValue, null
  br i1 %cmp.not.i, label %if.end.i, label %if.then.i

if.then.i:                                        ; preds = %entry
  %value.i = getelementptr inbounds i8, ptr %arrayidx.i, i64 8
  store ptr %value.i, ptr %tokenValue, align 8
  %.pre29.pre30.pre.i = load i32, ptr %lookaheadPosition.i, align 8
  %.pre = zext i32 %.pre29.pre30.pre.i to i64
  br label %if.end.i

if.end.i:                                         ; preds = %if.then.i, %entry
  %idxprom9.i.pre-phi = phi i64 [ %.pre, %if.then.i ], [ %idxprom.i, %entry ]
  %.pre29.pre.i = phi i32 [ %.pre29.pre30.pre.i, %if.then.i ], [ %0, %entry ]
  %line.i = getelementptr inbounds [4 x %struct.Lookahead], ptr %state, i64 0, i64 %idxprom9.i.pre-phi, i32 3
  %2 = load i32, ptr %line.i, align 8
  %cmp12.not.i = icmp eq ptr %comment, null
  br i1 %cmp12.not.i, label %_ZL8getTokenP10ParseStatePP7UStringS2_PjP10UErrorCode.exit, label %if.then13.i

if.then13.i:                                      ; preds = %if.end.i
  %comment18.i = getelementptr inbounds [4 x %struct.Lookahead], ptr %state, i64 0, i64 %idxprom9.i.pre-phi, i32 2
  tail call void @ustr_cpy(ptr noundef nonnull %comment, ptr noundef nonnull %comment18.i, ptr noundef %status)
  %.pre.i = load i32, ptr %lookaheadPosition.i, align 8
  br label %_ZL8getTokenP10ParseStatePP7UStringS2_PjP10UErrorCode.exit

_ZL8getTokenP10ParseStatePP7UStringS2_PjP10UErrorCode.exit: ; preds = %if.end.i, %if.then13.i
  %3 = phi i32 [ %.pre.i, %if.then13.i ], [ %.pre29.pre.i, %if.end.i ]
  %add.i = add i32 %3, 3
  %rem.i = and i32 %add.i, 3
  %add22.i = add i32 %3, 1
  %rem23.i = and i32 %add22.i, 3
  store i32 %rem23.i, ptr %lookaheadPosition.i, align 8
  %idxprom26.i = zext nneg i32 %rem.i to i64
  %arrayidx27.i = getelementptr inbounds [4 x %struct.Lookahead], ptr %state, i64 0, i64 %idxprom26.i
  %comment28.i = getelementptr inbounds i8, ptr %arrayidx27.i, i64 24
  tail call void @ustr_setlen(ptr noundef nonnull %comment28.i, i32 noundef 0, ptr noundef %status)
  %value32.i = getelementptr inbounds i8, ptr %arrayidx27.i, i64 8
  tail call void @ustr_setlen(ptr noundef nonnull %value32.i, i32 noundef 0, ptr noundef %status)
  %buffer.i = getelementptr inbounds i8, ptr %state, i64 200
  %4 = load ptr, ptr %buffer.i, align 8
  %line40.i = getelementptr inbounds i8, ptr %arrayidx27.i, i64 40
  %call.i = tail call i32 @getNextToken(ptr noundef %4, ptr noundef nonnull %value32.i, ptr noundef nonnull %line40.i, ptr noundef nonnull %comment28.i, ptr noundef %status)
  store i32 %call.i, ptr %arrayidx27.i, align 8
  %cmp.not = icmp eq ptr %linenumber, null
  br i1 %cmp.not, label %if.end, label %if.then

if.then:                                          ; preds = %_ZL8getTokenP10ParseStatePP7UStringS2_PjP10UErrorCode.exit
  store i32 %2, ptr %linenumber, align 4
  br label %if.end

if.end:                                           ; preds = %if.then, %_ZL8getTokenP10ParseStatePP7UStringS2_PjP10UErrorCode.exit
  %5 = load i32, ptr %status, align 4
  %cmp.i = icmp slt i32 %5, 1
  br i1 %cmp.i, label %if.end3, label %if.end8

if.end3:                                          ; preds = %if.end
  %cmp4.not = icmp eq i32 %1, %expectedToken
  br i1 %cmp4.not, label %if.else, label %if.then5

if.then5:                                         ; preds = %if.end3
  store i32 3, ptr %status, align 4
  %idxprom = zext nneg i32 %expectedToken to i64
  %arrayidx = getelementptr inbounds [7 x ptr], ptr @tokenNames, i64 0, i64 %idxprom
  %6 = load ptr, ptr %arrayidx, align 8
  %idxprom6 = zext i32 %1 to i64
  %arrayidx7 = getelementptr inbounds [7 x ptr], ptr @tokenNames, i64 0, i64 %idxprom6
  %7 = load ptr, ptr %arrayidx7, align 8
  tail call void (i32, ptr, ...) @error(i32 noundef %2, ptr noundef nonnull @.str.10, ptr noundef %6, ptr noundef %7)
  br label %if.end8

if.else:                                          ; preds = %if.end3
  store i32 0, ptr %status, align 4
  br label %if.end8

if.end8:                                          ; preds = %if.end, %if.else, %if.then5
  ret void
}